target datalayout = "e-m:e-p270:32:32-p271:32:32-p272:64:64-i64:64-i128:128-f80:128-n8:16:32:64-S128"
target triple = "x86_64-pc-linux-gnu"

%struct.cli_ctx_tag = type { ptr, ptr, ptr, ptr, ptr, ptr, ptr, i64, ptr, i32, i32, ptr, i32, i32, ptr, [16 x i8], ptr, ptr, ptr, ptr, ptr, ptr, %struct.timeval, i8, i8 }
%struct.timeval = type { i64, i64 }
%struct.cl_scan_options = type { i32, i32, i32, i32, i32 }

@.str = private unnamed_addr constant [40 x i8] c"cli_json_timeout_cycle_check: timeout!\0A\00", align 1

; Function Attrs: nounwind uwtable
define i32 @cli_json_timeout_cycle_check(ptr noundef %0, ptr noundef %1) #0 {
  %3 = alloca i32, align 4
  %4 = alloca ptr, align 8
  %5 = alloca ptr, align 8
  store ptr %0, ptr %4, align 8
  store ptr %1, ptr %5, align 8
  %6 = load ptr, ptr %4, align 8
  %7 = getelementptr inbounds %struct.cli_ctx_tag, ptr %6, i32 0, i32 8
  %8 = load ptr, ptr %7, align 8
  %9 = getelementptr inbounds %struct.cl_scan_options, ptr %8, i32 0, i32 0
  %10 = load i32, ptr %9, align 4
  %11 = and i32 %10, 2
  %12 = icmp ne i32 %11, 0
  br i1 %12, label %13, label %33

13:                                               ; preds = %2
  %14 = load ptr, ptr %5, align 8
  %15 = load i32, ptr %14, align 4
  %16 = icmp sle i32 %15, 0
  br i1 %16, label %17, label %26

17:                                               ; preds = %13
  %18 = load ptr, ptr %4, align 8
  %19 = call i32 @cli_checktimelimit(ptr noundef %18)
  %20 = icmp ne i32 %19, 0
  br i1 %20, label %21, label %22

21:                                               ; preds = %17
  call void (ptr, ...) @cli_dbgmsg(ptr noundef @.str)
  store i32 21, ptr %3, align 4
  br label %34

22:                                               ; preds = %17
  %23 = load ptr, ptr %5, align 8
  %24 = load i32, ptr %23, align 4
  %25 = add nsw i32 %24, 1
  store i32 %25, ptr %23, align 4
  br label %26

26:                                               ; preds = %22, %13
  %27 = load ptr, ptr %5, align 8
  %28 = load i32, ptr %27, align 4
  %29 = icmp sgt i32 %28, 3
  br i1 %29, label %30, label %32

30:                                               ; preds = %26
  %31 = load ptr, ptr %5, align 8
  store i32 0, ptr %31, align 4
  br label %32

32:                                               ; preds = %30, %26
  br label %33

33:                                               ; preds = %32, %2
  store i32 0, ptr %3, align 4
  br label %34

34:                                               ; preds = %33, %21
  %35 = load i32, ptr %3, align 4
  ret i32 %35
}