; Function Attrs: nounwind uwtable
define noundef i32 @cli_json_timeout_cycle_check(ptr noundef %0, ptr nocapture noundef %1) local_unnamed_addr #0 {
  %3 = getelementptr inbounds i8, ptr %0, i64 64
  %4 = load ptr, ptr %3, align 8
  %5 = load i32, ptr %4, align 4
  %6 = and i32 %5, 2
  %.not = icmp eq i32 %6, 0
  br i1 %.not, label %20, label %7

7:                                                ; preds = %2
  %8 = load i32, ptr %1, align 4
  %9 = icmp slt i32 %8, 1
  br i1 %9, label %10, label %16

10:                                               ; preds = %7
  %11 = tail call i32 @cli_checktimelimit(ptr noundef nonnull %0) #2
  %.not6 = icmp eq i32 %11, 0
  br i1 %.not6, label %13, label %12

12:                                               ; preds = %10
  tail call void (ptr, ...) @cli_dbgmsg(ptr noundef nonnull @.str) #2
  br label %20

13:                                               ; preds = %10
  %14 = load i32, ptr %1, align 4
  %15 = add nsw i32 %14, 1
  store i32 %15, ptr %1, align 4
  br label %16

16:                                               ; preds = %13, %7
  %17 = phi i32 [ %15, %13 ], [ %8, %7 ]
  %18 = icmp sgt i32 %17, 3
  br i1 %18, label %19, label %20

19:                                               ; preds = %16
  store i32 0, ptr %1, align 4
  br label %20

20:                                               ; preds = %2, %19, %16, %12
  %.0 = phi i32 [ 21, %12 ], [ 0, %16 ], [ 0, %19 ], [ 0, %2 ]
  ret i32 %.0
}